target datalayout = "e-m:e-p270:32:32-p271:32:32-p272:64:64-i64:64-i128:128-f80:128-n8:16:32:64-S128"
target triple = "x86_64-pc-linux-gnu"

%struct.pmix_tma = type { ptr, ptr, ptr, ptr, ptr, ptr, ptr, ptr }
%union.pthread_mutex_t = type { %struct.__pthread_mutex_s }
%struct.__pthread_mutex_s = type { i32, i32, i32, i32, i32, i16, i16, %struct.__pthread_internal_list }
%struct.__pthread_internal_list = type { ptr, ptr }
%struct.pmix_proc = type { [256 x i8], i32 }
%struct.pmix_object_t = type { %union.pthread_mutex_t, ptr, i32, %struct.pmix_tma }
%struct.pmix_get_logic_t = type { %struct.pmix_object_t, %struct.pmix_proc, i8, i8, i8, i8, i8, i8, i8, i8, i8, i32, i8, i8, ptr, i32, i8, i8, i32 }

; Function Attrs: nounwind uwtable
define internal void @lgcon(ptr noundef %0) #0 {
  %2 = alloca ptr, align 8
  store ptr %0, ptr %2, align 8, !tbaa !3
  %3 = load ptr, ptr %2, align 8, !tbaa !3
  %4 = getelementptr inbounds nuw %struct.pmix_get_logic_t, ptr %3, i32 0, i32 1
  call void @llvm.memset.p0.i64(ptr align 8 %4, i8 0, i64 260, i1 false)
  %5 = load ptr, ptr %2, align 8, !tbaa !3
  %6 = getelementptr inbounds nuw %struct.pmix_get_logic_t, ptr %5, i32 0, i32 2
  store i8 0, ptr %6, align 4, !tbaa !162
  %7 = load ptr, ptr %2, align 8, !tbaa !3
  %8 = getelementptr inbounds nuw %struct.pmix_get_logic_t, ptr %7, i32 0, i32 3
  store i8 0, ptr %8, align 1, !tbaa !165
  %9 = load ptr, ptr %2, align 8, !tbaa !3
  %10 = getelementptr inbounds nuw %struct.pmix_get_logic_t, ptr %9, i32 0, i32 4
  store i8 0, ptr %10, align 2, !tbaa !166
  %11 = load ptr, ptr %2, align 8, !tbaa !3
  %12 = getelementptr inbounds nuw %struct.pmix_get_logic_t, ptr %11, i32 0, i32 5
  store i8 0, ptr %12, align 1, !tbaa !167
  %13 = load ptr, ptr %2, align 8, !tbaa !3
  %14 = getelementptr inbounds nuw %struct.pmix_get_logic_t, ptr %13, i32 0, i32 6
  store i8 0, ptr %14, align 8, !tbaa !168
  %15 = load ptr, ptr %2, align 8, !tbaa !3
  %16 = getelementptr inbounds nuw %struct.pmix_get_logic_t, ptr %15, i32 0, i32 7
  store i8 0, ptr %16, align 1, !tbaa !169
  %17 = load ptr, ptr %2, align 8, !tbaa !3
  %18 = getelementptr inbounds nuw %struct.pmix_get_logic_t, ptr %17, i32 0, i32 8
  store i8 0, ptr %18, align 2, !tbaa !170
  %19 = load ptr, ptr %2, align 8, !tbaa !3
  %20 = getelementptr inbounds nuw %struct.pmix_get_logic_t, ptr %19, i32 0, i32 9
  store i8 0, ptr %20, align 1, !tbaa !171
  %21 = load ptr, ptr %2, align 8, !tbaa !3
  %22 = getelementptr inbounds nuw %struct.pmix_get_logic_t, ptr %21, i32 0, i32 10
  store i8 0, ptr %22, align 4, !tbaa !172
  %23 = load ptr, ptr %2, align 8, !tbaa !3
  %24 = getelementptr inbounds nuw %struct.pmix_get_logic_t, ptr %23, i32 0, i32 11
  store i32 -1, ptr %24, align 8, !tbaa !173
  %25 = load ptr, ptr %2, align 8, !tbaa !3
  %26 = getelementptr inbounds nuw %struct.pmix_get_logic_t, ptr %25, i32 0, i32 12
  store i8 0, ptr %26, align 4, !tbaa !174
  %27 = load ptr, ptr %2, align 8, !tbaa !3
  %28 = getelementptr inbounds nuw %struct.pmix_get_logic_t, ptr %27, i32 0, i32 13
  store i8 0, ptr %28, align 1, !tbaa !175
  %29 = load ptr, ptr %2, align 8, !tbaa !3
  %30 = getelementptr inbounds nuw %struct.pmix_get_logic_t, ptr %29, i32 0, i32 14
  store ptr null, ptr %30, align 8, !tbaa !176
  %31 = load ptr, ptr %2, align 8, !tbaa !3
  %32 = getelementptr inbounds nuw %struct.pmix_get_logic_t, ptr %31, i32 0, i32 15
  store i32 -1, ptr %32, align 8, !tbaa !177
  %33 = load ptr, ptr %2, align 8, !tbaa !3
  %34 = getelementptr inbounds nuw %struct.pmix_get_logic_t, ptr %33, i32 0, i32 16
  store i8 0, ptr %34, align 4, !tbaa !178
  %35 = load ptr, ptr %2, align 8, !tbaa !3
  %36 = getelementptr inbounds nuw %struct.pmix_get_logic_t, ptr %35, i32 0, i32 17
  store i8 0, ptr %36, align 1, !tbaa !179
  %37 = load ptr, ptr %2, align 8, !tbaa !3
  %38 = getelementptr inbounds nuw %struct.pmix_get_logic_t, ptr %37, i32 0, i32 18
  store i32 -1, ptr %38, align 8, !tbaa !180
  ret void
}