; Function Attrs: mustprogress nofree norecurse nosync nounwind willreturn memory(argmem: write) uwtable
define internal void @lgcon(ptr noundef writeonly captures(none) initializes((120, 389), (392, 398), (400, 414), (416, 420)) %0) #1 {
  %2 = getelementptr inbounds nuw i8, ptr %0, i64 120
  %3 = getelementptr inbounds nuw i8, ptr %0, i64 392
  tail call void @llvm.memset.p0.i64(ptr noundef nonnull align 8 dereferenceable(269) %2, i8 0, i64 269, i1 false)
  store i32 -1, ptr %3, align 8, !tbaa !142
  %4 = getelementptr inbounds nuw i8, ptr %0, i64 396
  store i8 0, ptr %4, align 4, !tbaa !145
  %5 = getelementptr inbounds nuw i8, ptr %0, i64 397
  store i8 0, ptr %5, align 1, !tbaa !146
  %6 = getelementptr inbounds nuw i8, ptr %0, i64 400
  store ptr null, ptr %6, align 8, !tbaa !147
  %7 = getelementptr inbounds nuw i8, ptr %0, i64 408
  store i32 -1, ptr %7, align 8, !tbaa !148
  %8 = getelementptr inbounds nuw i8, ptr %0, i64 412
  store i8 0, ptr %8, align 4, !tbaa !149
  %9 = getelementptr inbounds nuw i8, ptr %0, i64 413
  store i8 0, ptr %9, align 1, !tbaa !150
  %10 = getelementptr inbounds nuw i8, ptr %0, i64 416
  store i32 -1, ptr %10, align 8, !tbaa !151
  ret void
}